target datalayout = "e-m:e-p270:32:32-p271:32:32-p272:64:64-i64:64-i128:128-f80:128-n8:16:32:64-S128"
target triple = "x86_64-pc-linux-gnu"

%struct._priv_exr_context_t = type { i8, i8, i8, i8, i8, i8, i8, i8, %struct.exr_attr_string_t, %struct.exr_attr_string_t, ptr, ptr, ptr, ptr, ptr, ptr, ptr, ptr, i32, i32, i32, i32, i32, float, ptr, ptr, ptr, i64, ptr, ptr, i64, i32, i32, i32, i32, %struct._priv_exr_part_t, ptr, ptr, %struct.exr_attribute_list, %union.pthread_mutex_t, i8, i8, [2 x i8], i32 }
%struct.exr_attr_string_t = type { i32, i32, ptr }
%struct._priv_exr_part_t = type { i32, i32, %struct.exr_attribute_list, ptr, ptr, ptr, ptr, ptr, ptr, ptr, ptr, ptr, ptr, ptr, ptr, ptr, ptr, %struct.exr_attr_box2i_t, %struct.exr_attr_box2i_t, i32, i32, i32, float, i32, i32, ptr, ptr, ptr, ptr, i64, i16, i16, i32, i64, i64 }
%struct.exr_attr_box2i_t = type { %struct.exr_attr_v2i_t, %struct.exr_attr_v2i_t }
%struct.exr_attr_v2i_t = type { i32, i32 }
%struct.exr_attribute_list = type { i32, i32, ptr, ptr }
%union.pthread_mutex_t = type { %struct.__pthread_mutex_s }
%struct.__pthread_mutex_s = type { i32, i32, i32, i32, i32, i16, i16, %struct.__pthread_internal_list }
%struct.__pthread_internal_list = type { ptr, ptr }
%struct.exr_attribute_t = type { ptr, ptr, i8, i8, [2 x i8], i32, %union.anon }
%union.anon = type { double }

@.str = private unnamed_addr constant [29 x i8] c"Part index (%d) out of range\00", align 1
@.str.2 = private unnamed_addr constant [21 x i8] c"NULL output for '%s'\00", align 1
@.str.4 = private unnamed_addr constant [46 x i8] c"Invalid required attribute type '%s' for '%s'\00", align 1
@.str.13 = private unnamed_addr constant [19 x i8] c"screenWindowCenter\00", align 1

; Function Attrs: inlinehint nounwind uwtable
define internal void @internal_exr_unlock(ptr noundef %0) #2 {
  %2 = alloca ptr, align 8
  %3 = alloca ptr, align 8
  store ptr %0, ptr %2, align 8, !tbaa !3
  call void @llvm.lifetime.start.p0(i64 8, ptr %3) #8
  %4 = load ptr, ptr %2, align 8, !tbaa !3
  %5 = ptrtoint ptr %4 to i64
  %6 = inttoptr i64 %5 to ptr
  store ptr %6, ptr %3, align 8, !tbaa !3
  %7 = load ptr, ptr %3, align 8, !tbaa !3
  %8 = getelementptr inbounds nuw %struct._priv_exr_context_t, ptr %7, i32 0, i32 39
  %9 = call i32 @pthread_mutex_unlock(ptr noundef %8) #8
  call void @llvm.lifetime.end.p0(i64 8, ptr %3) #8
  ret void
}

; Function Attrs: inlinehint nounwind uwtable
define internal void @internal_exr_lock(ptr noundef %0) #2 {
  %2 = alloca ptr, align 8
  %3 = alloca ptr, align 8
  store ptr %0, ptr %2, align 8, !tbaa !3
  call void @llvm.lifetime.start.p0(i64 8, ptr %3) #8
  %4 = load ptr, ptr %2, align 8, !tbaa !3
  %5 = ptrtoint ptr %4 to i64
  %6 = inttoptr i64 %5 to ptr
  store ptr %6, ptr %3, align 8, !tbaa !3
  %7 = load ptr, ptr %3, align 8, !tbaa !3
  %8 = getelementptr inbounds nuw %struct._priv_exr_context_t, ptr %7, i32 0, i32 39
  %9 = call i32 @pthread_mutex_lock(ptr noundef %8) #8
  call void @llvm.lifetime.end.p0(i64 8, ptr %3) #8
  ret void
}

; Function Attrs: nounwind uwtable
define i32 @exr_get_screen_window_center(ptr noundef %0, i32 noundef %1, ptr noundef %2) #0 {
  %4 = alloca i32, align 4
  %5 = alloca ptr, align 8
  %6 = alloca i32, align 4
  %7 = alloca ptr, align 8
  %8 = alloca ptr, align 8
  %9 = alloca i32, align 4
  store ptr %0, ptr %5, align 8, !tbaa !3
  store i32 %1, ptr %6, align 4, !tbaa !8
  store ptr %2, ptr %7, align 8, !tbaa !35
  call void @llvm.lifetime.start.p0(i64 8, ptr %8) #8
  %10 = load ptr, ptr %5, align 8, !tbaa !3
  %11 = icmp ne ptr %10, null
  br i1 %11, label %13, label %12

12:                                               ; preds = %3
  store i32 2, ptr %4, align 4
  store i32 1, ptr %9, align 4
  br label %128

13:                                               ; preds = %3
  %14 = load ptr, ptr %5, align 8, !tbaa !3
  %15 = getelementptr inbounds nuw %struct._priv_exr_context_t, ptr %14, i32 0, i32 0
  %16 = load i8, ptr %15, align 8, !tbaa !12
  %17 = zext i8 %16 to i32
  %18 = icmp eq i32 %17, 1
  br i1 %18, label %19, label %21

19:                                               ; preds = %13
  %20 = load ptr, ptr %5, align 8, !tbaa !3
  call void @internal_exr_lock(ptr noundef %20)
  br label %21

21:                                               ; preds = %19, %13
  %22 = load i32, ptr %6, align 4, !tbaa !8
  %23 = icmp slt i32 %22, 0
  br i1 %23, label %30, label %24

24:                                               ; preds = %21
  %25 = load i32, ptr %6, align 4, !tbaa !8
  %26 = load ptr, ptr %5, align 8, !tbaa !3
  %27 = getelementptr inbounds nuw %struct._priv_exr_context_t, ptr %26, i32 0, i32 34
  %28 = load i32, ptr %27, align 4, !tbaa !26
  %29 = icmp sge i32 %25, %28
  br i1 %29, label %30, label %45

30:                                               ; preds = %24, %21
  %31 = load ptr, ptr %5, align 8, !tbaa !3
  %32 = getelementptr inbounds nuw %struct._priv_exr_context_t, ptr %31, i32 0, i32 0
  %33 = load i8, ptr %32, align 8, !tbaa !12
  %34 = zext i8 %33 to i32
  %35 = icmp eq i32 %34, 1
  br i1 %35, label %36, label %38

36:                                               ; preds = %30
  %37 = load ptr, ptr %5, align 8, !tbaa !3
  call void @internal_exr_unlock(ptr noundef %37)
  br label %38

38:                                               ; preds = %36, %30
  %39 = load ptr, ptr %5, align 8, !tbaa !3
  %40 = getelementptr inbounds nuw %struct._priv_exr_context_t, ptr %39, i32 0, i32 14
  %41 = load ptr, ptr %40, align 8, !tbaa !27
  %42 = load ptr, ptr %5, align 8, !tbaa !3
  %43 = load i32, ptr %6, align 4, !tbaa !8
  %44 = call i32 (ptr, i32, ptr, ...) %41(ptr noundef %42, i32 noundef 4, ptr noundef @.str, i32 noundef %43)
  store i32 %44, ptr %4, align 4
  store i32 1, ptr %9, align 4
  br label %128

45:                                               ; preds = %24
  %46 = load ptr, ptr %5, align 8, !tbaa !3
  %47 = getelementptr inbounds nuw %struct._priv_exr_context_t, ptr %46, i32 0, i32 37
  %48 = load ptr, ptr %47, align 8, !tbaa !28
  %49 = load i32, ptr %6, align 4, !tbaa !8
  %50 = sext i32 %49 to i64
  %51 = getelementptr inbounds ptr, ptr %48, i64 %50
  %52 = load ptr, ptr %51, align 8, !tbaa !29
  store ptr %52, ptr %8, align 8, !tbaa !29
  %53 = load ptr, ptr %7, align 8, !tbaa !35
  %54 = icmp ne ptr %53, null
  br i1 %54, label %70, label %55

55:                                               ; preds = %45
  %56 = load ptr, ptr %5, align 8, !tbaa !3
  %57 = getelementptr inbounds nuw %struct._priv_exr_context_t, ptr %56, i32 0, i32 0
  %58 = load i8, ptr %57, align 8, !tbaa !12
  %59 = zext i8 %58 to i32
  %60 = icmp eq i32 %59, 1
  br i1 %60, label %61, label %63

61:                                               ; preds = %55
  %62 = load ptr, ptr %5, align 8, !tbaa !3
  call void @internal_exr_unlock(ptr noundef %62)
  br label %64

63:                                               ; preds = %55
  br label %64

64:                                               ; preds = %63, %61
  %65 = load ptr, ptr %5, align 8, !tbaa !3
  %66 = getelementptr inbounds nuw %struct._priv_exr_context_t, ptr %65, i32 0, i32 14
  %67 = load ptr, ptr %66, align 8, !tbaa !27
  %68 = load ptr, ptr %5, align 8, !tbaa !3
  %69 = call i32 (ptr, i32, ptr, ...) %67(ptr noundef %68, i32 noundef 3, ptr noundef @.str.2, ptr noundef @.str.13)
  store i32 %69, ptr %4, align 4
  store i32 1, ptr %9, align 4
  br label %128

70:                                               ; preds = %45
  %71 = load ptr, ptr %8, align 8, !tbaa !29
  %72 = getelementptr inbounds nuw %struct._priv_exr_part_t, ptr %71, i32 0, i32 9
  %73 = load ptr, ptr %72, align 8, !tbaa !52
  %74 = icmp ne ptr %73, null
  br i1 %74, label %75, label %118

75:                                               ; preds = %70
  %76 = load ptr, ptr %8, align 8, !tbaa !29
  %77 = getelementptr inbounds nuw %struct._priv_exr_part_t, ptr %76, i32 0, i32 9
  %78 = load ptr, ptr %77, align 8, !tbaa !52
  %79 = getelementptr inbounds nuw %struct.exr_attribute_t, ptr %78, i32 0, i32 5
  %80 = load i32, ptr %79, align 4, !tbaa !39
  %81 = icmp ne i32 %80, 24
  br i1 %81, label %82, label %102

82:                                               ; preds = %75
  %83 = load ptr, ptr %5, align 8, !tbaa !3
  %84 = getelementptr inbounds nuw %struct._priv_exr_context_t, ptr %83, i32 0, i32 0
  %85 = load i8, ptr %84, align 8, !tbaa !12
  %86 = zext i8 %85 to i32
  %87 = icmp eq i32 %86, 1
  br i1 %87, label %88, label %90

88:                                               ; preds = %82
  %89 = load ptr, ptr %5, align 8, !tbaa !3
  call void @internal_exr_unlock(ptr noundef %89)
  br label %91

90:                                               ; preds = %82
  br label %91

91:                                               ; preds = %90, %88
  %92 = load ptr, ptr %5, align 8, !tbaa !3
  %93 = getelementptr inbounds nuw %struct._priv_exr_context_t, ptr %92, i32 0, i32 14
  %94 = load ptr, ptr %93, align 8, !tbaa !27
  %95 = load ptr, ptr %5, align 8, !tbaa !3
  %96 = load ptr, ptr %8, align 8, !tbaa !29
  %97 = getelementptr inbounds nuw %struct._priv_exr_part_t, ptr %96, i32 0, i32 9
  %98 = load ptr, ptr %97, align 8, !tbaa !52
  %99 = getelementptr inbounds nuw %struct.exr_attribute_t, ptr %98, i32 0, i32 1
  %100 = load ptr, ptr %99, align 8, !tbaa !41
  %101 = call i32 (ptr, i32, ptr, ...) %94(ptr noundef %95, i32 noundef 6, ptr noundef @.str.4, ptr noundef %100, ptr noundef @.str.13)
  store i32 %101, ptr %4, align 4
  store i32 1, ptr %9, align 4
  br label %128

102:                                              ; preds = %75
  %103 = load ptr, ptr %7, align 8, !tbaa !35
  %104 = load ptr, ptr %8, align 8, !tbaa !29
  %105 = getelementptr inbounds nuw %struct._priv_exr_part_t, ptr %104, i32 0, i32 9
  %106 = load ptr, ptr %105, align 8, !tbaa !52
  %107 = getelementptr inbounds nuw %struct.exr_attribute_t, ptr %106, i32 0, i32 6
  %108 = load ptr, ptr %107, align 8, !tbaa !42
  call void @llvm.memcpy.p0.p0.i64(ptr align 1 %103, ptr align 1 %108, i64 8, i1 false), !tbaa.struct !87
  %109 = load ptr, ptr %5, align 8, !tbaa !3
  %110 = getelementptr inbounds nuw %struct._priv_exr_context_t, ptr %109, i32 0, i32 0
  %111 = load i8, ptr %110, align 8, !tbaa !12
  %112 = zext i8 %111 to i32
  %113 = icmp eq i32 %112, 1
  br i1 %113, label %114, label %116

114:                                              ; preds = %102
  %115 = load ptr, ptr %5, align 8, !tbaa !3
  call void @internal_exr_unlock(ptr noundef %115)
  br label %117

116:                                              ; preds = %102
  br label %117

117:                                              ; preds = %116, %114
  store i32 0, ptr %4, align 4
  store i32 1, ptr %9, align 4
  br label %128

118:                                              ; preds = %70
  %119 = load ptr, ptr %5, align 8, !tbaa !3
  %120 = getelementptr inbounds nuw %struct._priv_exr_context_t, ptr %119, i32 0, i32 0
  %121 = load i8, ptr %120, align 8, !tbaa !12
  %122 = zext i8 %121 to i32
  %123 = icmp eq i32 %122, 1
  br i1 %123, label %124, label %126

124:                                              ; preds = %118
  %125 = load ptr, ptr %5, align 8, !tbaa !3
  call void @internal_exr_unlock(ptr noundef %125)
  br label %127

126:                                              ; preds = %118
  br label %127

127:                                              ; preds = %126, %124
  store i32 15, ptr %4, align 4
  store i32 1, ptr %9, align 4
  br label %128

128:                                              ; preds = %127, %117, %91, %64, %38, %12
  call void @llvm.lifetime.end.p0(i64 8, ptr %8) #8
  %129 = load i32, ptr %4, align 4
  ret i32 %129
}